; Function Attrs: mustprogress nofree norecurse nosync nounwind willreturn memory(argmem: read) uwtable
define hidden noundef zeroext i1 @_ZNK3ue29CharReach7isAlphaEv(ptr noundef nonnull readonly align 8 captures(none) dereferenceable(32) %0) local_unnamed_addr #2 align 2 {
  br label %2

2:                                                ; preds = %2, %1
  %.012.idx14.i.i = phi i64 [ 0, %1 ], [ %.012.add.i.i, %2 ]
  %.012.ptr.i.i = getelementptr inbounds nuw i8, ptr %0, i64 %.012.idx14.i.i
  %3 = load i64, ptr %.012.ptr.i.i, align 8
  %.not13.i.i = icmp eq i64 %3, 0
  %.012.add.i.i = add nuw nsw i64 %.012.idx14.i.i, 8
  %.not.i.i = icmp ne i64 %.012.add.i.i, 32
  %or.cond.not.i.i = select i1 %.not13.i.i, i1 %.not.i.i, i1 false
  br i1 %or.cond.not.i.i, label %2, label %_ZNK3ue29CharReach4noneEv.exit

_ZNK3ue29CharReach4noneEv.exit:                   ; preds = %2
  br i1 %.not13.i.i, label %.loopexit, label %.preheader

.preheader:                                       ; preds = %_ZNK3ue29CharReach4noneEv.exit, %6
  %.0710.i.i = phi i64 [ %7, %6 ], [ 0, %_ZNK3ue29CharReach4noneEv.exit ]
  %4 = getelementptr inbounds nuw [4 x i64], ptr %0, i64 0, i64 %.0710.i.i
  %5 = load i64, ptr %4, align 8
  %.not.i.i10 = icmp eq i64 %5, 0
  br i1 %.not.i.i10, label %6, label %_ZNK3ue29CharReach10find_firstEv.exit

6:                                                ; preds = %.preheader
  %7 = add nuw nsw i64 %.0710.i.i, 1
  %exitcond.i.i = icmp eq i64 %7, 4
  br i1 %exitcond.i.i, label %.loopexit, label %.preheader, !llvm.loop !5

_ZNK3ue29CharReach10find_firstEv.exit:            ; preds = %.preheader
  %8 = shl nuw nsw i64 %.0710.i.i, 6
  %9 = tail call noundef range(i64 0, 65) i64 @llvm.cttz.i64(i64 %5, i1 true)
  %10 = or disjoint i64 %9, %8
  %.not15 = icmp eq i64 %10, 256
  br i1 %.not15, label %.loopexit, label %.lr.ph.preheader

.lr.ph.preheader:                                 ; preds = %_ZNK3ue29CharReach10find_firstEv.exit
  %11 = trunc i64 %10 to i8
  %12 = and i8 %11, -33
  %13 = add i8 %12, -65
  %14 = icmp ult i8 %13, 26
  br i1 %14, label %.lr.ph42, label %.loopexit

.lr.ph42:                                         ; preds = %.lr.ph.preheader, %_ZNK3ue29CharReach9find_nextEm.exit
  %.051641 = phi i64 [ %33, %_ZNK3ue29CharReach9find_nextEm.exit ], [ %10, %.lr.ph.preheader ]
  %.not.i.i11 = icmp ugt i64 %.051641, 255
  br i1 %.not.i.i11, label %.loopexit, label %15

15:                                               ; preds = %.lr.ph42
  %16 = lshr i64 %.051641, 6
  %17 = and i64 %.051641, 63
  %.not20.i.i = icmp eq i64 %17, 63
  br i1 %.not20.i.i, label %.preheader44, label %18

.preheader44:                                     ; preds = %18, %15
  br label %25

18:                                               ; preds = %15
  %19 = getelementptr inbounds nuw [4 x i64], ptr %0, i64 0, i64 %16
  %20 = load i64, ptr %19, align 8
  %21 = shl nsw i64 -2, %17
  %22 = and i64 %20, %21
  %.not21.i.i = icmp eq i64 %22, 0
  br i1 %.not21.i.i, label %.preheader44, label %23

23:                                               ; preds = %18
  %24 = and i64 %.051641, 192
  br label %_ZNK3ue29CharReach9find_nextEm.exit

25:                                               ; preds = %.preheader44, %27
  %.0.in.i.i = phi i64 [ %.0.i.i, %27 ], [ %16, %.preheader44 ]
  %26 = icmp samesign ult i64 %.0.in.i.i, 3
  br i1 %26, label %27, label %.loopexit

27:                                               ; preds = %25
  %.0.i.i = add nuw nsw i64 %.0.in.i.i, 1
  %28 = getelementptr inbounds nuw [4 x i64], ptr %0, i64 0, i64 %.0.i.i
  %29 = load i64, ptr %28, align 8
  %.not22.i.i = icmp eq i64 %29, 0
  br i1 %.not22.i.i, label %25, label %30, !llvm.loop !7

30:                                               ; preds = %27
  %31 = shl nuw nsw i64 %.0.i.i, 6
  br label %_ZNK3ue29CharReach9find_nextEm.exit

_ZNK3ue29CharReach9find_nextEm.exit:              ; preds = %23, %30
  %.sink35 = phi i64 [ %22, %23 ], [ %29, %30 ]
  %.sink34 = phi i64 [ %24, %23 ], [ %31, %30 ]
  %32 = tail call range(i64 0, 65) i64 @llvm.cttz.i64(i64 %.sink35, i1 true)
  %33 = or disjoint i64 %32, %.sink34
  %34 = trunc i64 %33 to i8
  %35 = and i8 %34, -33
  %36 = add i8 %35, -65
  %37 = icmp ult i8 %36, 26
  br i1 %37, label %.lr.ph42, label %.loopexit, !llvm.loop !8

.loopexit:                                        ; preds = %6, %_ZNK3ue29CharReach9find_nextEm.exit, %.lr.ph42, %25, %.lr.ph.preheader, %_ZNK3ue29CharReach10find_firstEv.exit, %_ZNK3ue29CharReach4noneEv.exit
  %.06 = phi i1 [ false, %_ZNK3ue29CharReach4noneEv.exit ], [ true, %_ZNK3ue29CharReach10find_firstEv.exit ], [ false, %.lr.ph.preheader ], [ true, %25 ], [ %.not.i.i11, %.lr.ph42 ], [ %.not.i.i11, %_ZNK3ue29CharReach9find_nextEm.exit ], [ true, %6 ]
  ret i1 %.06
}